; Function Attrs: mustprogress nounwind uwtable
define noundef nonnull align 8 dereferenceable(352) ptr @_ZN8QuantLib6CPILeg18withExCouponPeriodERKNS_6PeriodERKNS_8CalendarENS_21BusinessDayConventionEb(ptr noundef nonnull returned align 8 dereferenceable(352) %this, ptr nocapture noundef nonnull readonly align 4 dereferenceable(8) %period, ptr nocapture noundef nonnull readonly align 8 dereferenceable(16) %cal, i32 noundef %convention, i1 noundef zeroext %endOfMonth) local_unnamed_addr #10 align 2 personality ptr @__gxx_personality_v0 {
entry:
  %exCouponPeriod_ = getelementptr inbounds nuw i8, ptr %this, i64 312
  %0 = load i64, ptr %period, align 4
  store i64 %0, ptr %exCouponPeriod_, align 8
  %exCouponCalendar_ = getelementptr inbounds nuw i8, ptr %this, i64 320
  %1 = load ptr, ptr %cal, align 8, !tbaa !133
  %pn3.i.i.i = getelementptr inbounds nuw i8, ptr %cal, i64 8
  %2 = load ptr, ptr %pn3.i.i.i, align 8, !tbaa !48
  %cmp.not.i.i.i.i = icmp eq ptr %2, null
  br i1 %cmp.not.i.i.i.i, label %_ZN5boost10shared_ptrIN8QuantLib8Calendar4ImplEEC2ERKS4_.exit.i.i, label %if.then.i.i.i.i

if.then.i.i.i.i:                                  ; preds = %entry
  %use_count_.i.i.i.i.i = getelementptr inbounds nuw i8, ptr %2, i64 8
  %3 = atomicrmw add ptr %use_count_.i.i.i.i.i, i32 1 monotonic, align 4
  br label %_ZN5boost10shared_ptrIN8QuantLib8Calendar4ImplEEC2ERKS4_.exit.i.i

_ZN5boost10shared_ptrIN8QuantLib8Calendar4ImplEEC2ERKS4_.exit.i.i: ; preds = %if.then.i.i.i.i, %entry
  store ptr %1, ptr %exCouponCalendar_, align 8, !tbaa !3
  %pn3.i2.i.i = getelementptr inbounds nuw i8, ptr %this, i64 328
  %4 = load ptr, ptr %pn3.i2.i.i, align 8, !tbaa !48
  store ptr %2, ptr %pn3.i2.i.i, align 8, !tbaa !48
  %cmp.not.i.i4.i.i = icmp eq ptr %4, null
  br i1 %cmp.not.i.i4.i.i, label %_ZN8QuantLib8CalendaraSERKS0_.exit, label %if.then.i.i5.i.i

if.then.i.i5.i.i:                                 ; preds = %_ZN5boost10shared_ptrIN8QuantLib8Calendar4ImplEEC2ERKS4_.exit.i.i
  %use_count_.i.i.i6.i.i = getelementptr inbounds nuw i8, ptr %4, i64 8
  %5 = atomicrmw sub ptr %use_count_.i.i.i6.i.i, i32 1 acq_rel, align 4
  %cmp.i.i.i.i.i = icmp eq i32 %5, 1
  br i1 %cmp.i.i.i.i.i, label %if.then.i.i.i.i.i, label %_ZN8QuantLib8CalendaraSERKS0_.exit

if.then.i.i.i.i.i:                                ; preds = %if.then.i.i5.i.i
  %vtable.i.i.i.i.i = load ptr, ptr %4, align 8, !tbaa !33
  %vfn.i.i.i.i.i = getelementptr inbounds i8, ptr %vtable.i.i.i.i.i, i64 16
  %6 = load ptr, ptr %vfn.i.i.i.i.i, align 8
  invoke void %6(ptr noundef nonnull align 8 dereferenceable(16) %4)
          to label %.noexc.i.i.i.i unwind label %terminate.lpad.i.i.i.i

.noexc.i.i.i.i:                                   ; preds = %if.then.i.i.i.i.i
  %weak_count_.i.i.i.i.i.i = getelementptr inbounds nuw i8, ptr %4, i64 12
  %7 = atomicrmw sub ptr %weak_count_.i.i.i.i.i.i, i32 1 acq_rel, align 4
  %cmp.i.i.i.i.i.i = icmp eq i32 %7, 1
  br i1 %cmp.i.i.i.i.i.i, label %if.then.i.i.i.i.i.i, label %_ZN8QuantLib8CalendaraSERKS0_.exit

if.then.i.i.i.i.i.i:                              ; preds = %.noexc.i.i.i.i
  %vtable.i.i.i.i.i.i = load ptr, ptr %4, align 8, !tbaa !33
  %vfn.i.i.i.i.i.i = getelementptr inbounds i8, ptr %vtable.i.i.i.i.i.i, i64 24
  %8 = load ptr, ptr %vfn.i.i.i.i.i.i, align 8
  invoke void %8(ptr noundef nonnull align 8 dereferenceable(16) %4)
          to label %_ZN8QuantLib8CalendaraSERKS0_.exit unwind label %terminate.lpad.i.i.i.i

terminate.lpad.i.i.i.i:                           ; preds = %if.then.i.i.i.i.i.i, %if.then.i.i.i.i.i
  %9 = landingpad { ptr, i32 }
          catch ptr null
  %10 = extractvalue { ptr, i32 } %9, 0
  tail call void @__clang_call_terminate(ptr %10) #32
  unreachable

_ZN8QuantLib8CalendaraSERKS0_.exit:               ; preds = %_ZN5boost10shared_ptrIN8QuantLib8Calendar4ImplEEC2ERKS4_.exit.i.i, %if.then.i.i5.i.i, %.noexc.i.i.i.i, %if.then.i.i.i.i.i.i
  %storedv = zext i1 %endOfMonth to i8
  %exCouponAdjustment_ = getelementptr inbounds nuw i8, ptr %this, i64 336
  store i32 %convention, ptr %exCouponAdjustment_, align 8, !tbaa !174
  %exCouponEndOfMonth_ = getelementptr inbounds nuw i8, ptr %this, i64 340
  store i8 %storedv, ptr %exCouponEndOfMonth_, align 4, !tbaa !175
  ret ptr %this
}